; Function Attrs: nounwind uwtable
define hidden zeroext i1 @je_prof_thread_active_init_get(ptr noundef %0) local_unnamed_addr #4 {
  %2 = tail call i32 @pthread_mutex_trylock(ptr noundef nonnull getelementptr inbounds nuw (i8, ptr @prof_thread_active_init_mtx, i64 72)) #10
  %.not.i = icmp eq i32 %2, 0
  br i1 %.not.i, label %malloc_mutex_trylock_final.exit.i, label %3

malloc_mutex_trylock_final.exit.i:                ; preds = %1
  store atomic i8 1, ptr getelementptr inbounds nuw (i8, ptr @prof_thread_active_init_mtx, i64 64) monotonic, align 8
  br label %4

3:                                                ; preds = %1
  tail call void @je_malloc_mutex_lock_slow(ptr noundef nonnull @prof_thread_active_init_mtx) #10
  br label %4

4:                                                ; preds = %3, %malloc_mutex_trylock_final.exit.i
  %5 = load i64, ptr getelementptr inbounds nuw (i8, ptr @prof_thread_active_init_mtx, i64 56), align 8, !tbaa !7
  %6 = add i64 %5, 1
  store i64 %6, ptr getelementptr inbounds nuw (i8, ptr @prof_thread_active_init_mtx, i64 56), align 8, !tbaa !7
  %7 = load ptr, ptr getelementptr inbounds nuw (i8, ptr @prof_thread_active_init_mtx, i64 48), align 8, !tbaa !15
  %.not.i.i = icmp eq ptr %7, %0
  br i1 %.not.i.i, label %malloc_mutex_lock.exit, label %8

8:                                                ; preds = %4
  store ptr %0, ptr getelementptr inbounds nuw (i8, ptr @prof_thread_active_init_mtx, i64 48), align 8, !tbaa !15
  %9 = load i64, ptr getelementptr inbounds nuw (i8, ptr @prof_thread_active_init_mtx, i64 40), align 8, !tbaa !16
  %10 = add i64 %9, 1
  store i64 %10, ptr getelementptr inbounds nuw (i8, ptr @prof_thread_active_init_mtx, i64 40), align 8, !tbaa !16
  br label %malloc_mutex_lock.exit

malloc_mutex_lock.exit:                           ; preds = %4, %8
  %11 = load i8, ptr @prof_thread_active_init, align 1, !tbaa !18, !range !20, !noundef !21
  %12 = trunc nuw i8 %11 to i1
  store atomic i8 0, ptr getelementptr inbounds nuw (i8, ptr @prof_thread_active_init_mtx, i64 64) monotonic, align 8
  %13 = tail call i32 @pthread_mutex_unlock(ptr noundef nonnull getelementptr inbounds nuw (i8, ptr @prof_thread_active_init_mtx, i64 72)) #10
  ret i1 %12
}